target datalayout = "e-m:e-p270:32:32-p271:32:32-p272:64:64-i64:64-i128:128-f80:128-n8:16:32:64-S128"
target triple = "x86_64-pc-linux-gnu"

%"class.(anonymous namespace)::itanium_demangle::Node" = type <{ ptr, i8, i16, [5 x i8] }>
%"class.(anonymous namespace)::itanium_demangle::Node.base" = type <{ ptr, i8, i16 }>
%"class.(anonymous namespace)::itanium_demangle::TemplateParamQualifiedArg" = type { %"class.(anonymous namespace)::itanium_demangle::Node.base", ptr, ptr }

; Function Attrs: mustprogress uwtable
define internal void @_ZNK12_GLOBAL__N_116itanium_demangle4Node5printERNS0_12OutputBufferE(ptr noundef nonnull align 8 dereferenceable(11) %0, ptr noundef nonnull align 8 dereferenceable(44) %1) #3 align 2 {
  %3 = alloca ptr, align 8
  %4 = alloca ptr, align 8
  store ptr %0, ptr %3, align 8, !tbaa !4
  store ptr %1, ptr %4, align 8, !tbaa !226
  %5 = load ptr, ptr %3, align 8
  %6 = load ptr, ptr %4, align 8, !tbaa !226
  %7 = load ptr, ptr %6, align 8, !tbaa !232
  %8 = getelementptr inbounds ptr, ptr %7, i64 2
  %9 = load ptr, ptr %8, align 8
  call void %9(ptr noundef nonnull align 8 dereferenceable(44) %6, ptr noundef nonnull align 8 dereferenceable(11) %5)
  %10 = getelementptr inbounds nuw %"class.(anonymous namespace)::itanium_demangle::Node", ptr %5, i32 0, i32 2
  %11 = load i16, ptr %10, align 1
  %12 = lshr i16 %11, 6
  %13 = and i16 %12, 3
  %14 = trunc i16 %13 to i8
  %15 = icmp ne i8 %14, 1
  br i1 %15, label %16, label %21

16:                                               ; preds = %2
  %17 = load ptr, ptr %4, align 8, !tbaa !226
  %18 = load ptr, ptr %17, align 8, !tbaa !232
  %19 = getelementptr inbounds ptr, ptr %18, i64 3
  %20 = load ptr, ptr %19, align 8
  call void %20(ptr noundef nonnull align 8 dereferenceable(44) %17, ptr noundef nonnull align 8 dereferenceable(11) %5)
  br label %21

21:                                               ; preds = %16, %2
  ret void
}

; Function Attrs: mustprogress uwtable
define internal void @_ZNK12_GLOBAL__N_116itanium_demangle25TemplateParamQualifiedArg9printLeftERNS0_12OutputBufferE(ptr noundef nonnull align 8 dereferenceable(32) %0, ptr noundef nonnull align 8 dereferenceable(44) %1) unnamed_addr #3 align 2 {
  %3 = alloca ptr, align 8
  %4 = alloca ptr, align 8
  store ptr %0, ptr %3, align 8, !tbaa !86
  store ptr %1, ptr %4, align 8, !tbaa !226
  %5 = load ptr, ptr %3, align 8
  %6 = getelementptr inbounds nuw %"class.(anonymous namespace)::itanium_demangle::TemplateParamQualifiedArg", ptr %5, i32 0, i32 2
  %7 = load ptr, ptr %6, align 8, !tbaa !569
  %8 = load ptr, ptr %4, align 8, !tbaa !226
  call void @_ZNK12_GLOBAL__N_116itanium_demangle4Node5printERNS0_12OutputBufferE(ptr noundef nonnull align 8 dereferenceable(11) %7, ptr noundef nonnull align 8 dereferenceable(44) %8)
  ret void
}